target datalayout = "e-m:e-p270:32:32-p271:32:32-p272:64:64-i64:64-i128:128-f80:128-n8:16:32:64-S128"
target triple = "x86_64-pc-linux-gnu"

%struct._GList = type { ptr, ptr, ptr }
%struct.dt_tag_t = type { i32, ptr, ptr, ptr, i32, i32, i32 }

; Function Attrs: nounwind uwtable
define ptr @dt_sort_tag(ptr noundef %0, i32 noundef %1) #0 {
  %3 = alloca ptr, align 8
  %4 = alloca i32, align 4
  %5 = alloca ptr, align 8
  %6 = alloca ptr, align 8
  %7 = alloca i32, align 4
  %8 = alloca ptr, align 8
  %9 = alloca ptr, align 8
  %10 = alloca ptr, align 8
  %11 = alloca ptr, align 8
  %12 = alloca ptr, align 8
  store ptr %0, ptr %3, align 8, !tbaa !59
  store i32 %1, ptr %4, align 4, !tbaa !52
  call void @llvm.lifetime.start.p0(i64 8, ptr %5) #8
  %13 = load i32, ptr %4, align 4, !tbaa !52
  %14 = icmp sle i32 %13, 1
  br i1 %14, label %15, label %102

15:                                               ; preds = %2
  call void @llvm.lifetime.start.p0(i64 8, ptr %6) #8
  %16 = load ptr, ptr %3, align 8, !tbaa !59
  store ptr %16, ptr %6, align 8, !tbaa !59
  br label %17

17:                                               ; preds = %53, %15
  %18 = load ptr, ptr %6, align 8, !tbaa !59
  %19 = icmp ne ptr %18, null
  br i1 %19, label %21, label %20

20:                                               ; preds = %17
  store i32 2, ptr %7, align 4
  call void @llvm.lifetime.end.p0(i64 8, ptr %6) #8
  br label %55

21:                                               ; preds = %17
  call void @llvm.lifetime.start.p0(i64 8, ptr %8) #8
  %22 = load ptr, ptr %6, align 8, !tbaa !59
  %23 = getelementptr inbounds nuw %struct._GList, ptr %22, i32 0, i32 0
  %24 = load ptr, ptr %23, align 8, !tbaa !60
  %25 = getelementptr inbounds nuw %struct.dt_tag_t, ptr %24, i32 0, i32 1
  %26 = load ptr, ptr %25, align 8, !tbaa !80
  store ptr %26, ptr %8, align 8, !tbaa !6
  call void @llvm.lifetime.start.p0(i64 8, ptr %9) #8
  %27 = load ptr, ptr %8, align 8, !tbaa !6
  store ptr %27, ptr %9, align 8, !tbaa !6
  br label %28

28:                                               ; preds = %41, %21
  %29 = load ptr, ptr %9, align 8, !tbaa !6
  %30 = load i8, ptr %29, align 1, !tbaa !13
  %31 = icmp ne i8 %30, 0
  br i1 %31, label %33, label %32

32:                                               ; preds = %28
  store i32 5, ptr %7, align 4
  call void @llvm.lifetime.end.p0(i64 8, ptr %9) #8
  br label %44

33:                                               ; preds = %28
  %34 = load ptr, ptr %9, align 8, !tbaa !6
  %35 = load i8, ptr %34, align 1, !tbaa !13
  %36 = sext i8 %35 to i32
  %37 = icmp eq i32 %36, 124
  br i1 %37, label %38, label %40

38:                                               ; preds = %33
  %39 = load ptr, ptr %9, align 8, !tbaa !6
  store i8 1, ptr %39, align 1, !tbaa !13
  br label %40

40:                                               ; preds = %38, %33
  br label %41

41:                                               ; preds = %40
  %42 = load ptr, ptr %9, align 8, !tbaa !6
  %43 = getelementptr inbounds nuw i8, ptr %42, i32 1
  store ptr %43, ptr %9, align 8, !tbaa !6
  br label %28

44:                                               ; preds = %32
  call void @llvm.lifetime.end.p0(i64 8, ptr %8) #8
  br label %45

45:                                               ; preds = %44
  %46 = load ptr, ptr %6, align 8, !tbaa !59
  %47 = icmp ne ptr %46, null
  br i1 %47, label %48, label %52

48:                                               ; preds = %45
  %49 = load ptr, ptr %6, align 8, !tbaa !59
  %50 = getelementptr inbounds nuw %struct._GList, ptr %49, i32 0, i32 1
  %51 = load ptr, ptr %50, align 8, !tbaa !64
  br label %53

52:                                               ; preds = %45
  br label %53

53:                                               ; preds = %52, %48
  %54 = phi ptr [ %51, %48 ], [ null, %52 ]
  store ptr %54, ptr %6, align 8, !tbaa !59
  br label %17

55:                                               ; preds = %20
  %56 = load ptr, ptr %3, align 8, !tbaa !59
  %57 = load i32, ptr %4, align 4, !tbaa !52
  %58 = icmp ne i32 %57, 0
  %59 = xor i1 %58, true
  %60 = select i1 %59, ptr @sort_tag_by_path, ptr @sort_tag_by_leave
  %61 = call ptr @g_list_sort(ptr noundef %56, ptr noundef %60)
  store ptr %61, ptr %5, align 8, !tbaa !59
  call void @llvm.lifetime.start.p0(i64 8, ptr %10) #8
  %62 = load ptr, ptr %5, align 8, !tbaa !59
  store ptr %62, ptr %10, align 8, !tbaa !59
  br label %63

63:                                               ; preds = %99, %55
  %64 = load ptr, ptr %10, align 8, !tbaa !59
  %65 = icmp ne ptr %64, null
  br i1 %65, label %67, label %66

66:                                               ; preds = %63
  store i32 8, ptr %7, align 4
  call void @llvm.lifetime.end.p0(i64 8, ptr %10) #8
  br label %101

67:                                               ; preds = %63
  call void @llvm.lifetime.start.p0(i64 8, ptr %11) #8
  %68 = load ptr, ptr %10, align 8, !tbaa !59
  %69 = getelementptr inbounds nuw %struct._GList, ptr %68, i32 0, i32 0
  %70 = load ptr, ptr %69, align 8, !tbaa !60
  %71 = getelementptr inbounds nuw %struct.dt_tag_t, ptr %70, i32 0, i32 1
  %72 = load ptr, ptr %71, align 8, !tbaa !80
  store ptr %72, ptr %11, align 8, !tbaa !6
  call void @llvm.lifetime.start.p0(i64 8, ptr %12) #8
  %73 = load ptr, ptr %11, align 8, !tbaa !6
  store ptr %73, ptr %12, align 8, !tbaa !6
  br label %74

74:                                               ; preds = %87, %67
  %75 = load ptr, ptr %12, align 8, !tbaa !6
  %76 = load i8, ptr %75, align 1, !tbaa !13
  %77 = icmp ne i8 %76, 0
  br i1 %77, label %79, label %78

78:                                               ; preds = %74
  store i32 11, ptr %7, align 4
  call void @llvm.lifetime.end.p0(i64 8, ptr %12) #8
  br label %90

79:                                               ; preds = %74
  %80 = load ptr, ptr %12, align 8, !tbaa !6
  %81 = load i8, ptr %80, align 1, !tbaa !13
  %82 = sext i8 %81 to i32
  %83 = icmp eq i32 %82, 1
  br i1 %83, label %84, label %86

84:                                               ; preds = %79
  %85 = load ptr, ptr %12, align 8, !tbaa !6
  store i8 124, ptr %85, align 1, !tbaa !13
  br label %86

86:                                               ; preds = %84, %79
  br label %87

87:                                               ; preds = %86
  %88 = load ptr, ptr %12, align 8, !tbaa !6
  %89 = getelementptr inbounds nuw i8, ptr %88, i32 1
  store ptr %89, ptr %12, align 8, !tbaa !6
  br label %74

90:                                               ; preds = %78
  call void @llvm.lifetime.end.p0(i64 8, ptr %11) #8
  br label %91

91:                                               ; preds = %90
  %92 = load ptr, ptr %10, align 8, !tbaa !59
  %93 = icmp ne ptr %92, null
  br i1 %93, label %94, label %98

94:                                               ; preds = %91
  %95 = load ptr, ptr %10, align 8, !tbaa !59
  %96 = getelementptr inbounds nuw %struct._GList, ptr %95, i32 0, i32 1
  %97 = load ptr, ptr %96, align 8, !tbaa !64
  br label %99

98:                                               ; preds = %91
  br label %99

99:                                               ; preds = %98, %94
  %100 = phi ptr [ %97, %94 ], [ null, %98 ]
  store ptr %100, ptr %10, align 8, !tbaa !59
  br label %63

101:                                              ; preds = %66
  br label %105

102:                                              ; preds = %2
  %103 = load ptr, ptr %3, align 8, !tbaa !59
  %104 = call ptr @g_list_sort(ptr noundef %103, ptr noundef @sort_tag_by_count)
  store ptr %104, ptr %5, align 8, !tbaa !59
  br label %105

105:                                              ; preds = %102, %101
  %106 = load ptr, ptr %5, align 8, !tbaa !59
  store i32 1, ptr %7, align 4
  call void @llvm.lifetime.end.p0(i64 8, ptr %5) #8
  ret ptr %106
}