; Function Attrs: nounwind uwtable
define ptr @dt_sort_tag(ptr noundef %0, i32 noundef %1) local_unnamed_addr #0 {
  %3 = icmp slt i32 %1, 2
  br i1 %3, label %.preheader, label %28

.preheader:                                       ; preds = %2
  %.not35 = icmp eq ptr %0, null
  br i1 %.not35, label %._crit_edge, label %.lr.ph

._crit_edge:                                      ; preds = %14, %.preheader
  %.not31 = icmp eq i32 %1, 0
  %4 = select i1 %.not31, ptr @sort_tag_by_path, ptr @sort_tag_by_leave
  %5 = tail call ptr @g_list_sort(ptr noundef %0, ptr noundef nonnull %4) #11
  %.not3237 = icmp eq ptr %5, null
  br i1 %.not3237, label %.loopexit, label %.lr.ph40

.lr.ph:                                           ; preds = %.preheader, %14
  %.02736 = phi ptr [ %16, %14 ], [ %0, %.preheader ]
  %6 = load ptr, ptr %.02736, align 8, !tbaa !58
  %7 = getelementptr inbounds nuw i8, ptr %6, i64 8
  %8 = load ptr, ptr %7, align 8, !tbaa !70
  br label %9

9:                                                ; preds = %12, %.lr.ph
  %.026 = phi ptr [ %8, %.lr.ph ], [ %13, %12 ]
  %10 = load i8, ptr %.026, align 1, !tbaa !6
  switch i8 %10, label %12 [
    i8 0, label %14
    i8 124, label %11
  ]

11:                                               ; preds = %9
  store i8 1, ptr %.026, align 1, !tbaa !6
  br label %12

12:                                               ; preds = %9, %11
  %13 = getelementptr inbounds nuw i8, ptr %.026, i64 1
  br label %9

14:                                               ; preds = %9
  %15 = getelementptr inbounds nuw i8, ptr %.02736, i64 8
  %16 = load ptr, ptr %15, align 8, !tbaa !62
  %.not = icmp eq ptr %16, null
  br i1 %.not, label %._crit_edge, label %.lr.ph

.lr.ph40:                                         ; preds = %._crit_edge, %25
  %.02538 = phi ptr [ %27, %25 ], [ %5, %._crit_edge ]
  %17 = load ptr, ptr %.02538, align 8, !tbaa !58
  %18 = getelementptr inbounds nuw i8, ptr %17, i64 8
  %19 = load ptr, ptr %18, align 8, !tbaa !70
  br label %20

20:                                               ; preds = %23, %.lr.ph40
  %.0 = phi ptr [ %19, %.lr.ph40 ], [ %24, %23 ]
  %21 = load i8, ptr %.0, align 1, !tbaa !6
  switch i8 %21, label %23 [
    i8 0, label %25
    i8 1, label %22
  ]

22:                                               ; preds = %20
  store i8 124, ptr %.0, align 1, !tbaa !6
  br label %23

23:                                               ; preds = %20, %22
  %24 = getelementptr inbounds nuw i8, ptr %.0, i64 1
  br label %20

25:                                               ; preds = %20
  %26 = getelementptr inbounds nuw i8, ptr %.02538, i64 8
  %27 = load ptr, ptr %26, align 8, !tbaa !62
  %.not32 = icmp eq ptr %27, null
  br i1 %.not32, label %.loopexit, label %.lr.ph40

28:                                               ; preds = %2
  %29 = tail call ptr @g_list_sort(ptr noundef %0, ptr noundef nonnull @sort_tag_by_count) #11
  br label %.loopexit

.loopexit:                                        ; preds = %25, %._crit_edge, %28
  %.024 = phi ptr [ %29, %28 ], [ null, %._crit_edge ], [ %5, %25 ]
  ret ptr %.024
}